; Function Attrs: nounwind uwtable
define internal void @close_connect_only(ptr noundef %0, ptr readnone captures(none) %1, ptr readnone captures(none) %2) #0 {
  %4 = getelementptr inbounds nuw i8, ptr %0, i64 1413
  %5 = load i8, ptr %4, align 1, !tbaa !141
  %.not = icmp eq i8 %5, 0
  br i1 %.not, label %7, label %6

6:                                                ; preds = %3
  tail call void @Curl_conncontrol(ptr noundef nonnull %0, i32 noundef 1) #19
  br label %7

7:                                                ; preds = %6, %3
  ret void
}